; ModuleID = '54/103.c'
source_filename = "54/103.c"
target datalayout = "e-m:e-p270:32:32-p271:32:32-p272:64:64-i64:64-f80:128-n8:16:32:64-S128"
target triple = "x86_64-pc-linux-gnu"

@.str = private unnamed_addr constant [5 x i8] c"%d%d\00", align 1
@.str.1 = private unnamed_addr constant [3 x i8] c"%d\00", align 1

; Function Attrs: noinline nounwind uwtable
define dso_local void @main() #0 {
  %1 = alloca i32, align 4
  %2 = alloca i32, align 4
  %3 = alloca i32, align 4
  %4 = alloca i32, align 4
  %5 = alloca [100 x i32], align 16
  %6 = call i32 (i8*, ...) @__isoc99_scanf(i8* getelementptr inbounds ([5 x i8], [5 x i8]* @.str, i64 0, i64 0), i32* %3, i32* %4)
  store i32 1, i32* %1, align 4
  br label %7

7:                                                ; preds = %15, %0
  %8 = load i32, i32* %1, align 4
  %9 = load i32, i32* %3, align 4
  %10 = icmp sle i32 %8, %9
  br i1 %10, label %11, label %18

11:                                               ; preds = %7
  %12 = load i32, i32* %1, align 4
  %13 = sext i32 %12 to i64
  %14 = getelementptr inbounds [100 x i32], [100 x i32]* %5, i64 0, i64 %13
  store i32 0, i32* %14, align 4
  br label %15

15:                                               ; preds = %11
  %16 = load i32, i32* %1, align 4
  %17 = add nsw i32 %16, 1
  store i32 %17, i32* %1, align 4
  br label %7

18:                                               ; preds = %7
  store i32 1, i32* %1, align 4
  br label %19

19:                                               ; preds = %73, %18
  %20 = load i32, i32* %1, align 4
  %21 = load i32, i32* %3, align 4
  %22 = mul nsw i32 %20, %21
  %23 = load i32, i32* %4, align 4
  %24 = add nsw i32 %22, %23
  %25 = getelementptr inbounds [100 x i32], [100 x i32]* %5, i64 0, i64 1
  store i32 %24, i32* %25, align 4
  store i32 1, i32* %2, align 4
  br label %26

26:                                               ; preds = %57, %19
  %27 = load i32, i32* %2, align 4
  %28 = load i32, i32* %3, align 4
  %29 = icmp sle i32 %27, %28
  br i1 %29, label %30, label %60

30:                                               ; preds = %26
  %31 = load i32, i32* %2, align 4
  %32 = sext i32 %31 to i64
  %33 = getelementptr inbounds [100 x i32], [100 x i32]* %5, i64 0, i64 %32
  %34 = load i32, i32* %33, align 4
  %35 = load i32, i32* %3, align 4
  %36 = sub nsw i32 %35, 1
  %37 = srem i32 %34, %36
  %38 = icmp eq i32 %37, 0
  br i1 %38, label %39, label %55

39:                                               ; preds = %30
  %40 = load i32, i32* %2, align 4
  %41 = sext i32 %40 to i64
  %42 = getelementptr inbounds [100 x i32], [100 x i32]* %5, i64 0, i64 %41
  %43 = load i32, i32* %42, align 4
  %44 = load i32, i32* %3, align 4
  %45 = sub nsw i32 %44, 1
  %46 = sdiv i32 %43, %45
  %47 = load i32, i32* %3, align 4
  %48 = mul nsw i32 %46, %47
  %49 = load i32, i32* %4, align 4
  %50 = add nsw i32 %48, %49
  %51 = load i32, i32* %2, align 4
  %52 = add nsw i32 %51, 1
  %53 = sext i32 %52 to i64
  %54 = getelementptr inbounds [100 x i32], [100 x i32]* %5, i64 0, i64 %53
  store i32 %50, i32* %54, align 4
  br label %56

55:                                               ; preds = %30
  br label %60

56:                                               ; preds = %39
  br label %57

57:                                               ; preds = %56
  %58 = load i32, i32* %2, align 4
  %59 = add nsw i32 %58, 1
  store i32 %59, i32* %2, align 4
  br label %26

60:                                               ; preds = %55, %26
  %61 = load i32, i32* %3, align 4
  %62 = sext i32 %61 to i64
  %63 = getelementptr inbounds [100 x i32], [100 x i32]* %5, i64 0, i64 %62
  %64 = load i32, i32* %63, align 4
  %65 = icmp ne i32 %64, 0
  br i1 %65, label %66, label %72

66:                                               ; preds = %60
  %67 = load i32, i32* %3, align 4
  %68 = sext i32 %67 to i64
  %69 = getelementptr inbounds [100 x i32], [100 x i32]* %5, i64 0, i64 %68
  %70 = load i32, i32* %69, align 4
  %71 = call i32 (i8*, ...) @printf(i8* getelementptr inbounds ([3 x i8], [3 x i8]* @.str.1, i64 0, i64 0), i32 %70)
  br label %76

72:                                               ; preds = %60
  br label %73

73:                                               ; preds = %72
  %74 = load i32, i32* %1, align 4
  %75 = add nsw i32 %74, 1
  store i32 %75, i32* %1, align 4
  br label %19

76:                                               ; preds = %66
  ret void
}

declare dso_local i32 @__isoc99_scanf(i8*, ...) #1

declare dso_local i32 @printf(i8*, ...) #1


!llvm.module.flags = !{!0}
!llvm.ident = !{!1}

!0 = !{i32 1, !"wchar_size", i32 4}
!1 = !{!"clang version 10.0.0-4ubuntu1 "}
